; Function Attrs: mustprogress uwtable
define hidden void @_ZN4cvc58internal6theory11TheoryModel21recordModelCoreSymbolENS0_12NodeTemplateILb1EEE(ptr noundef nonnull align 8 dereferenceable(904) %this, ptr noundef nonnull %sym) local_unnamed_addr #3 align 2 {
entry:
  %__node_gen.i.i = alloca %"struct.std::__detail::_AllocNode", align 8
  %d_model_core = getelementptr inbounds i8, ptr %this, i64 624
  call void @llvm.lifetime.start.p0(i64 8, ptr nonnull %__node_gen.i.i)
  store ptr %d_model_core, ptr %__node_gen.i.i, align 8
  %call3.i.i.i = call { ptr, i8 } @_ZNSt10_HashtableIN4cvc58internal12NodeTemplateILb1EEES3_SaIS3_ENSt8__detail9_IdentityESt8equal_toIS3_ESt4hashIS3_ENS5_18_Mod_range_hashingENS5_20_Default_ranged_hashENS5_20_Prime_rehash_policyENS5_17_Hashtable_traitsILb1ELb1ELb1EEEE16_M_insert_uniqueIRKS3_SJ_NS5_10_AllocNodeISaINS5_10_Hash_nodeIS3_Lb1EEEEEEEESt4pairINS5_14_Node_iteratorIS3_Lb1ELb1EEEbEOT_OT0_RKT1_(ptr noundef nonnull align 8 dereferenceable(56) %d_model_core, ptr noundef nonnull align 8 dereferenceable(8) %sym, ptr noundef nonnull align 8 dereferenceable(8) %sym, ptr noundef nonnull align 8 dereferenceable(8) %__node_gen.i.i)
  call void @llvm.lifetime.end.p0(i64 8, ptr nonnull %__node_gen.i.i)
  ret void
}